target datalayout = "e-m:e-p270:32:32-p271:32:32-p272:64:64-i64:64-i128:128-f80:128-n8:16:32:64-S128"
target triple = "x86_64-pc-linux-gnu"

%"struct.Atomic::XchgImpl" = type { i8 }
%"struct.Atomic::PlatformAdd" = type { i8 }
%"struct.Atomic::PlatformXchg" = type { i8 }

$_Z12jdouble_castl = comdat any

$_Z11jfloat_casti = comdat any

$_ZN6Atomic3addIjjEET_PVS1_T0_19atomic_memory_order = comdat any

$_ZN6Atomic4xchgIP6SymbolS2_EET_PVS3_T0_19atomic_memory_order = comdat any

$_ZN6Symbol24maybe_decrement_refcountEPS_ = comdat any

$_ZN6Atomic7AddImplIjjvE14add_then_fetchEPVjj19atomic_memory_order = comdat any

$_ZNK6Atomic11PlatformAddILm4EE14add_then_fetchIjjEET_PVS3_T0_19atomic_memory_order = comdat any

$_ZNK6Atomic11PlatformAddILm4EE14fetch_then_addIjjEET_PVS3_T0_19atomic_memory_order = comdat any

$_ZNK6Atomic8XchgImplIP6SymbolS2_vEclEPVS2_S2_19atomic_memory_order = comdat any

$_ZNK6Atomic12PlatformXchgILm8EEclIP6SymbolEET_PVS5_S5_19atomic_memory_order = comdat any

@_ZL11min_jdouble = internal global double 0.000000e+00, align 8
@_ZL11max_jdouble = internal global double 0.000000e+00, align 8
@_ZL10min_jfloat = internal global float 0.000000e+00, align 4
@_ZL10max_jfloat = internal global float 0.000000e+00, align 4
@_ZN24TempSymbolCleanupDelayer6_queueE = hidden global [128 x ptr] zeroinitializer, align 16
@_ZN24TempSymbolCleanupDelayer6_indexE = hidden global i32 0, align 4
@llvm.global_ctors = appending global [1 x { i32, ptr, ptr }] [{ i32, ptr, ptr } { i32 65535, ptr @_GLOBAL__sub_I_symbolHandle.cpp, ptr null }]

; Function Attrs: nounwind uwtable
define internal void @__cxx_global_var_init() #0 section ".text.startup" {
  %1 = call noundef double @_Z12jdouble_castl(i64 noundef 1)
  store double %1, ptr @_ZL11min_jdouble, align 8
  ret void
}

; Function Attrs: mustprogress nounwind uwtable
define linkonce_odr hidden noundef double @_Z12jdouble_castl(i64 noundef %0) #1 comdat {
  %2 = alloca i64, align 8
  store i64 %0, ptr %2, align 8
  %3 = load double, ptr %2, align 8
  ret double %3
}

; Function Attrs: nounwind uwtable
define internal void @__cxx_global_var_init.1() #0 section ".text.startup" {
  %1 = call noundef double @_Z12jdouble_castl(i64 noundef 9218868437227405311)
  store double %1, ptr @_ZL11max_jdouble, align 8
  ret void
}

; Function Attrs: nounwind uwtable
define internal void @__cxx_global_var_init.2() #0 section ".text.startup" {
  %1 = call noundef float @_Z11jfloat_casti(i32 noundef 1)
  store float %1, ptr @_ZL10min_jfloat, align 4
  ret void
}

; Function Attrs: mustprogress nounwind uwtable
define linkonce_odr hidden noundef float @_Z11jfloat_casti(i32 noundef %0) #1 comdat {
  %2 = alloca i32, align 4
  store i32 %0, ptr %2, align 4
  %3 = load float, ptr %2, align 4
  ret float %3
}

; Function Attrs: nounwind uwtable
define internal void @__cxx_global_var_init.3() #0 section ".text.startup" {
  %1 = call noundef float @_Z11jfloat_casti(i32 noundef 2139095039)
  store float %1, ptr @_ZL10max_jfloat, align 4
  ret void
}

; Function Attrs: mustprogress nounwind uwtable
define hidden void @_ZN24TempSymbolCleanupDelayer13delay_cleanupEP6Symbol(ptr noundef %0) #1 align 2 {
  %2 = alloca ptr, align 8
  %3 = alloca i32, align 4
  %4 = alloca ptr, align 8
  store ptr %0, ptr %2, align 8
  %5 = load ptr, ptr %2, align 8
  call void @_ZN6Symbol18increment_refcountEv(ptr noundef nonnull align 4 dereferenceable(8) %5)
  %6 = call noundef i32 @_ZN6Atomic3addIjjEET_PVS1_T0_19atomic_memory_order(ptr noundef @_ZN24TempSymbolCleanupDelayer6_indexE, i32 noundef 1, i32 noundef 8)
  %7 = urem i32 %6, 128
  store i32 %7, ptr %3, align 4
  %8 = load i32, ptr %3, align 4
  %9 = zext i32 %8 to i64
  %10 = getelementptr inbounds [128 x ptr], ptr @_ZN24TempSymbolCleanupDelayer6_queueE, i64 0, i64 %9
  %11 = load ptr, ptr %2, align 8
  %12 = call noundef ptr @_ZN6Atomic4xchgIP6SymbolS2_EET_PVS3_T0_19atomic_memory_order(ptr noundef %10, ptr noundef %11, i32 noundef 8)
  store ptr %12, ptr %4, align 8
  %13 = load ptr, ptr %4, align 8
  call void @_ZN6Symbol24maybe_decrement_refcountEPS_(ptr noundef %13)
  ret void
}

declare void @_ZN6Symbol18increment_refcountEv(ptr noundef nonnull align 4 dereferenceable(8)) #2

; Function Attrs: mustprogress nounwind uwtable
define linkonce_odr hidden noundef i32 @_ZN6Atomic3addIjjEET_PVS1_T0_19atomic_memory_order(ptr noundef %0, i32 noundef %1, i32 noundef %2) #1 comdat align 2 {
  %4 = alloca ptr, align 8
  %5 = alloca i32, align 4
  %6 = alloca i32, align 4
  store ptr %0, ptr %4, align 8
  store i32 %1, ptr %5, align 4
  store i32 %2, ptr %6, align 4
  %7 = load ptr, ptr %4, align 8
  %8 = load i32, ptr %5, align 4
  %9 = load i32, ptr %6, align 4
  %10 = call noundef i32 @_ZN6Atomic7AddImplIjjvE14add_then_fetchEPVjj19atomic_memory_order(ptr noundef %7, i32 noundef %8, i32 noundef %9)
  ret i32 %10
}

; Function Attrs: mustprogress nounwind uwtable
define linkonce_odr hidden noundef ptr @_ZN6Atomic4xchgIP6SymbolS2_EET_PVS3_T0_19atomic_memory_order(ptr noundef %0, ptr noundef %1, i32 noundef %2) #1 comdat align 2 {
  %4 = alloca ptr, align 8
  %5 = alloca ptr, align 8
  %6 = alloca i32, align 4
  %7 = alloca %"struct.Atomic::XchgImpl", align 1
  store ptr %0, ptr %4, align 8
  store ptr %1, ptr %5, align 8
  store i32 %2, ptr %6, align 4
  %8 = load ptr, ptr %4, align 8
  %9 = load ptr, ptr %5, align 8
  %10 = load i32, ptr %6, align 4
  %11 = call noundef ptr @_ZNK6Atomic8XchgImplIP6SymbolS2_vEclEPVS2_S2_19atomic_memory_order(ptr noundef nonnull align 1 dereferenceable(1) %7, ptr noundef %8, ptr noundef %9, i32 noundef %10)
  ret ptr %11
}

; Function Attrs: mustprogress nounwind uwtable
define linkonce_odr hidden void @_ZN6Symbol24maybe_decrement_refcountEPS_(ptr noundef %0) #1 comdat align 2 {
  %2 = alloca ptr, align 8
  store ptr %0, ptr %2, align 8
  %3 = load ptr, ptr %2, align 8
  %4 = icmp ne ptr %3, null
  br i1 %4, label %5, label %7

5:                                                ; preds = %1
  %6 = load ptr, ptr %2, align 8
  call void @_ZN6Symbol18decrement_refcountEv(ptr noundef nonnull align 4 dereferenceable(8) %6)
  br label %7

7:                                                ; preds = %5, %1
  ret void
}

; Function Attrs: mustprogress nounwind uwtable
define hidden void @_ZN24TempSymbolCleanupDelayer11drain_queueEv() #1 align 2 {
  %1 = alloca i32, align 4
  %2 = alloca ptr, align 8
  store i32 0, ptr %1, align 4
  br label %3

3:                                                ; preds = %12, %0
  %4 = load i32, ptr %1, align 4
  %5 = icmp ult i32 %4, 128
  br i1 %5, label %6, label %15

6:                                                ; preds = %3
  %7 = load i32, ptr %1, align 4
  %8 = zext i32 %7 to i64
  %9 = getelementptr inbounds [128 x ptr], ptr @_ZN24TempSymbolCleanupDelayer6_queueE, i64 0, i64 %8
  %10 = call noundef ptr @_ZN6Atomic4xchgIP6SymbolS2_EET_PVS3_T0_19atomic_memory_order(ptr noundef %9, ptr noundef null, i32 noundef 8)
  store ptr %10, ptr %2, align 8
  %11 = load ptr, ptr %2, align 8
  call void @_ZN6Symbol24maybe_decrement_refcountEPS_(ptr noundef %11)
  br label %12

12:                                               ; preds = %6
  %13 = load i32, ptr %1, align 4
  %14 = add i32 %13, 1
  store i32 %14, ptr %1, align 4
  br label %3, !llvm.loop !6

15:                                               ; preds = %3
  ret void
}

declare void @_ZN6Symbol18decrement_refcountEv(ptr noundef nonnull align 4 dereferenceable(8)) #2

; Function Attrs: mustprogress nounwind uwtable
define linkonce_odr hidden noundef i32 @_ZN6Atomic7AddImplIjjvE14add_then_fetchEPVjj19atomic_memory_order(ptr noundef %0, i32 noundef %1, i32 noundef %2) #1 comdat align 2 {
  %4 = alloca ptr, align 8
  %5 = alloca i32, align 4
  %6 = alloca i32, align 4
  %7 = alloca i32, align 4
  %8 = alloca %"struct.Atomic::PlatformAdd", align 1
  store ptr %0, ptr %4, align 8
  store i32 %1, ptr %5, align 4
  store i32 %2, ptr %6, align 4
  %9 = load i32, ptr %5, align 4
  store i32 %9, ptr %7, align 4
  %10 = load ptr, ptr %4, align 8
  %11 = load i32, ptr %7, align 4
  %12 = load i32, ptr %6, align 4
  %13 = call noundef i32 @_ZNK6Atomic11PlatformAddILm4EE14add_then_fetchIjjEET_PVS3_T0_19atomic_memory_order(ptr noundef nonnull align 1 dereferenceable(1) %8, ptr noundef %10, i32 noundef %11, i32 noundef %12)
  ret i32 %13
}

; Function Attrs: mustprogress nounwind uwtable
define linkonce_odr hidden noundef i32 @_ZNK6Atomic11PlatformAddILm4EE14add_then_fetchIjjEET_PVS3_T0_19atomic_memory_order(ptr noundef nonnull align 1 dereferenceable(1) %0, ptr noundef %1, i32 noundef %2, i32 noundef %3) #1 comdat align 2 {
  %5 = alloca ptr, align 8
  %6 = alloca ptr, align 8
  %7 = alloca i32, align 4
  %8 = alloca i32, align 4
  store ptr %0, ptr %5, align 8
  store ptr %1, ptr %6, align 8
  store i32 %2, ptr %7, align 4
  store i32 %3, ptr %8, align 4
  %9 = load ptr, ptr %5, align 8
  %10 = load ptr, ptr %6, align 8
  %11 = load i32, ptr %7, align 4
  %12 = load i32, ptr %8, align 4
  %13 = call noundef i32 @_ZNK6Atomic11PlatformAddILm4EE14fetch_then_addIjjEET_PVS3_T0_19atomic_memory_order(ptr noundef nonnull align 1 dereferenceable(1) %9, ptr noundef %10, i32 noundef %11, i32 noundef %12)
  %14 = load i32, ptr %7, align 4
  %15 = add i32 %13, %14
  ret i32 %15
}

; Function Attrs: mustprogress nounwind uwtable
define linkonce_odr hidden noundef i32 @_ZNK6Atomic11PlatformAddILm4EE14fetch_then_addIjjEET_PVS3_T0_19atomic_memory_order(ptr noundef nonnull align 1 dereferenceable(1) %0, ptr noundef %1, i32 noundef %2, i32 noundef %3) #1 comdat align 2 {
  %5 = alloca ptr, align 8
  %6 = alloca ptr, align 8
  %7 = alloca i32, align 4
  %8 = alloca i32, align 4
  %9 = alloca i32, align 4
  store ptr %0, ptr %5, align 8
  store ptr %1, ptr %6, align 8
  store i32 %2, ptr %7, align 4
  store i32 %3, ptr %8, align 4
  %10 = load i32, ptr %7, align 4
  %11 = load ptr, ptr %6, align 8
  %12 = call i32 asm sideeffect "lock xaddl $0,($2)", "=r,0,r,~{cc},~{memory},~{dirflag},~{fpsr},~{flags}"(i32 %10, ptr %11) #3, !srcloc !8
  store i32 %12, ptr %9, align 4
  %13 = load i32, ptr %9, align 4
  ret i32 %13
}

; Function Attrs: mustprogress nounwind uwtable
define linkonce_odr hidden noundef ptr @_ZNK6Atomic8XchgImplIP6SymbolS2_vEclEPVS2_S2_19atomic_memory_order(ptr noundef nonnull align 1 dereferenceable(1) %0, ptr noundef %1, ptr noundef %2, i32 noundef %3) #1 comdat align 2 {
  %5 = alloca ptr, align 8
  %6 = alloca ptr, align 8
  %7 = alloca ptr, align 8
  %8 = alloca i32, align 4
  %9 = alloca ptr, align 8
  %10 = alloca %"struct.Atomic::PlatformXchg", align 1
  store ptr %0, ptr %5, align 8
  store ptr %1, ptr %6, align 8
  store ptr %2, ptr %7, align 8
  store i32 %3, ptr %8, align 4
  %11 = load ptr, ptr %7, align 8
  store ptr %11, ptr %9, align 8
  %12 = load ptr, ptr %6, align 8
  %13 = load ptr, ptr %9, align 8
  %14 = load i32, ptr %8, align 4
  %15 = call noundef ptr @_ZNK6Atomic12PlatformXchgILm8EEclIP6SymbolEET_PVS5_S5_19atomic_memory_order(ptr noundef nonnull align 1 dereferenceable(1) %10, ptr noundef %12, ptr noundef %13, i32 noundef %14)
  ret ptr %15
}

; Function Attrs: mustprogress nounwind uwtable
define linkonce_odr hidden noundef ptr @_ZNK6Atomic12PlatformXchgILm8EEclIP6SymbolEET_PVS5_S5_19atomic_memory_order(ptr noundef nonnull align 1 dereferenceable(1) %0, ptr noundef %1, ptr noundef %2, i32 noundef %3) #1 comdat align 2 {
  %5 = alloca ptr, align 8
  %6 = alloca ptr, align 8
  %7 = alloca ptr, align 8
  %8 = alloca i32, align 4
  store ptr %0, ptr %5, align 8
  store ptr %1, ptr %6, align 8
  store ptr %2, ptr %7, align 8
  store i32 %3, ptr %8, align 4
  %9 = load ptr, ptr %7, align 8
  %10 = load ptr, ptr %6, align 8
  %11 = call ptr asm sideeffect "xchgq ($2),$0", "=r,0,r,~{memory},~{dirflag},~{fpsr},~{flags}"(ptr %9, ptr %10) #3, !srcloc !9
  store ptr %11, ptr %7, align 8
  %12 = load ptr, ptr %7, align 8
  ret ptr %12
}

; Function Attrs: nounwind uwtable
define internal void @_GLOBAL__sub_I_symbolHandle.cpp() #0 section ".text.startup" {
  call void @__cxx_global_var_init()
  call void @__cxx_global_var_init.1()
  call void @__cxx_global_var_init.2()
  call void @__cxx_global_var_init.3()
  ret void
}


!llvm.module.flags = !{!0, !1, !2, !3, !4, !5}

!0 = !{i32 7, !"Dwarf Version", i32 5}
!1 = !{i32 2, !"Debug Info Version", i32 3}
!2 = !{i32 1, !"wchar_size", i32 4}
!3 = !{i32 8, !"PIC Level", i32 2}
!4 = !{i32 7, !"uwtable", i32 2}
!5 = !{i32 7, !"frame-pointer", i32 2}
!6 = distinct !{!6, !7}
!7 = !{!"llvm.loop.mustprogress"}
!8 = !{i64 2145409567}
!9 = !{i64 2145412131}
